target datalayout = "e-m:e-p270:32:32-p271:32:32-p272:64:64-i64:64-i128:128-f80:128-n8:16:32:64-S128"
target triple = "x86_64-pc-linux-gnu"

%"class.llvm::pdb::LayoutItemBase" = type <{ ptr, ptr, ptr, %"class.llvm::BitVector", %"class.std::__cxx11::basic_string", i32, i32, i32, i8, [3 x i8] }>
%"class.llvm::BitVector" = type <{ %"class.llvm::SmallVector", i32, [4 x i8] }>
%"class.llvm::SmallVector" = type { %"class.llvm::SmallVectorImpl", %"struct.llvm::SmallVectorStorage" }
%"class.llvm::SmallVectorImpl" = type { %"class.llvm::SmallVectorTemplateBase" }
%"class.llvm::SmallVectorTemplateBase" = type { %"class.llvm::SmallVectorTemplateCommon" }
%"class.llvm::SmallVectorTemplateCommon" = type { %"class.llvm::SmallVectorBase" }
%"class.llvm::SmallVectorBase" = type { ptr, i32, i32 }
%"struct.llvm::SmallVectorStorage" = type { [48 x i8] }
%"class.std::__cxx11::basic_string" = type { %"struct.std::__cxx11::basic_string<char>::_Alloc_hider", i64, %union.anon }
%"struct.std::__cxx11::basic_string<char>::_Alloc_hider" = type { ptr }
%union.anon = type { i64, [8 x i8] }

; Function Attrs: mustprogress nounwind uwtable
define linkonce_odr hidden noundef i32 @_ZN4llvm6detail19LeadingZerosCounterImLm8EE5countEm(i64 noundef %0) #0 comdat align 2 {
  %2 = alloca i32, align 4
  %3 = alloca i64, align 8
  store i64 %0, ptr %3, align 8
  %4 = load i64, ptr %3, align 8
  %5 = icmp eq i64 %4, 0
  br i1 %5, label %6, label %7

6:                                                ; preds = %1
  store i32 64, ptr %2, align 4
  br label %11

7:                                                ; preds = %1
  %8 = load i64, ptr %3, align 8
  %9 = call i64 @llvm.ctlz.i64(i64 %8, i1 true)
  %10 = trunc i64 %9 to i32
  store i32 %10, ptr %2, align 4
  br label %11

11:                                               ; preds = %7, %6
  %12 = load i32, ptr %2, align 4
  ret i32 %12
}

; Function Attrs: mustprogress nounwind uwtable
define linkonce_odr noundef i64 @_ZN4llvm15maskLeadingOnesImEET_j(i32 noundef %0) #0 comdat {
  %2 = alloca i32, align 4
  store i32 %0, ptr %2, align 4
  %3 = load i32, ptr %2, align 4
  %4 = zext i32 %3 to i64
  %5 = sub i64 64, %4
  %6 = trunc i64 %5 to i32
  %7 = call noundef i64 @_ZN4llvm16maskTrailingOnesImEET_j(i32 noundef %6)
  %8 = xor i64 %7, -1
  ret i64 %8
}

; Function Attrs: mustprogress nounwind uwtable
define linkonce_odr hidden noundef ptr @_ZNK4llvm25SmallVectorTemplateCommonImvE5beginEv(ptr noundef nonnull align 8 dereferenceable(16) %0) #0 comdat align 2 {
  %2 = alloca ptr, align 8
  store ptr %0, ptr %2, align 8
  %3 = load ptr, ptr %2, align 8
  %4 = getelementptr inbounds nuw %"class.llvm::SmallVectorBase", ptr %3, i32 0, i32 0
  %5 = load ptr, ptr %4, align 8
  ret ptr %5
}

; Function Attrs: mustprogress nounwind uwtable
define linkonce_odr noundef i32 @_ZN4llvm11countl_zeroImEEiT_(i64 noundef %0) #0 comdat {
  %2 = alloca i64, align 8
  store i64 %0, ptr %2, align 8
  %3 = load i64, ptr %2, align 8
  %4 = call noundef i32 @_ZN4llvm6detail19LeadingZerosCounterImLm8EE5countEm(i64 noundef %3)
  ret i32 %4
}

; Function Attrs: mustprogress nounwind uwtable
define linkonce_odr noundef i64 @_ZN4llvm17maskTrailingZerosImEET_j(i32 noundef %0) #0 comdat {
  %2 = alloca i32, align 4
  store i32 %0, ptr %2, align 4
  %3 = load i32, ptr %2, align 4
  %4 = zext i32 %3 to i64
  %5 = sub i64 64, %4
  %6 = trunc i64 %5 to i32
  %7 = call noundef i64 @_ZN4llvm15maskLeadingOnesImEET_j(i32 noundef %6)
  ret i64 %7
}

; Function Attrs: mustprogress nounwind uwtable
define linkonce_odr noundef i64 @_ZN4llvm16maskTrailingOnesImEET_j(i32 noundef %0) #0 comdat {
  %2 = alloca i64, align 8
  %3 = alloca i32, align 4
  %4 = alloca i32, align 4
  store i32 %0, ptr %3, align 4
  store i32 64, ptr %4, align 4
  %5 = load i32, ptr %3, align 4
  %6 = icmp eq i32 %5, 0
  br i1 %6, label %7, label %8

7:                                                ; preds = %1
  store i64 0, ptr %2, align 8
  br label %13

8:                                                ; preds = %1
  %9 = load i32, ptr %3, align 4
  %10 = sub i32 64, %9
  %11 = zext i32 %10 to i64
  %12 = lshr i64 -1, %11
  store i64 %12, ptr %2, align 8
  br label %13

13:                                               ; preds = %8, %7
  %14 = load i64, ptr %2, align 8
  ret i64 %14
}

; Function Attrs: mustprogress nounwind uwtable
define linkonce_odr hidden noundef nonnull align 8 dereferenceable(8) ptr @_ZNK4llvm25SmallVectorTemplateCommonImvEixEm(ptr noundef nonnull align 8 dereferenceable(16) %0, i64 noundef %1) #0 comdat align 2 {
  %3 = alloca ptr, align 8
  %4 = alloca i64, align 8
  store ptr %0, ptr %3, align 8
  store i64 %1, ptr %4, align 8
  %5 = load ptr, ptr %3, align 8
  %6 = call noundef ptr @_ZNK4llvm25SmallVectorTemplateCommonImvE5beginEv(ptr noundef nonnull align 8 dereferenceable(16) %5)
  %7 = load i64, ptr %4, align 8
  %8 = getelementptr inbounds i64, ptr %6, i64 %7
  ret ptr %8
}

; Function Attrs: mustprogress nounwind uwtable
define linkonce_odr hidden noundef i32 @_ZNK4llvm9BitVector12find_last_inEjj(ptr noundef nonnull align 8 dereferenceable(68) %0, i32 noundef %1, i32 noundef %2) #0 comdat align 2 {
  %4 = alloca i32, align 4
  %5 = alloca ptr, align 8
  %6 = alloca i32, align 4
  %7 = alloca i32, align 4
  %8 = alloca i32, align 4
  %9 = alloca i32, align 4
  %10 = alloca i32, align 4
  %11 = alloca i32, align 4
  %12 = alloca i64, align 8
  %13 = alloca i32, align 4
  %14 = alloca i32, align 4
  store ptr %0, ptr %5, align 8
  store i32 %1, ptr %6, align 4
  store i32 %2, ptr %7, align 4
  %15 = load ptr, ptr %5, align 8
  %16 = load i32, ptr %6, align 4
  %17 = load i32, ptr %7, align 4
  %18 = icmp eq i32 %16, %17
  br i1 %18, label %19, label %20

19:                                               ; preds = %3
  store i32 -1, ptr %4, align 4
  br label %80

20:                                               ; preds = %3
  %21 = load i32, ptr %7, align 4
  %22 = sub i32 %21, 1
  %23 = udiv i32 %22, 64
  store i32 %23, ptr %8, align 4
  %24 = load i32, ptr %6, align 4
  %25 = udiv i32 %24, 64
  store i32 %25, ptr %9, align 4
  %26 = load i32, ptr %8, align 4
  %27 = add i32 %26, 1
  store i32 %27, ptr %10, align 4
  br label %28

28:                                               ; preds = %76, %20
  %29 = load i32, ptr %10, align 4
  %30 = load i32, ptr %9, align 4
  %31 = add i32 %30, 1
  %32 = icmp uge i32 %29, %31
  br i1 %32, label %33, label %79

33:                                               ; preds = %28
  %34 = load i32, ptr %10, align 4
  %35 = sub i32 %34, 1
  store i32 %35, ptr %11, align 4
  %36 = getelementptr inbounds nuw %"class.llvm::BitVector", ptr %15, i32 0, i32 0
  %37 = load i32, ptr %11, align 4
  %38 = zext i32 %37 to i64
  %39 = call noundef nonnull align 8 dereferenceable(8) ptr @_ZNK4llvm25SmallVectorTemplateCommonImvEixEm(ptr noundef nonnull align 8 dereferenceable(16) %36, i64 noundef %38)
  %40 = load i64, ptr %39, align 8
  store i64 %40, ptr %12, align 8
  %41 = load i32, ptr %11, align 4
  %42 = load i32, ptr %8, align 4
  %43 = icmp eq i32 %41, %42
  br i1 %43, label %44, label %53

44:                                               ; preds = %33
  %45 = load i32, ptr %7, align 4
  %46 = sub i32 %45, 1
  %47 = urem i32 %46, 64
  store i32 %47, ptr %13, align 4
  %48 = load i32, ptr %13, align 4
  %49 = add i32 %48, 1
  %50 = call noundef i64 @_ZN4llvm16maskTrailingOnesImEET_j(i32 noundef %49)
  %51 = load i64, ptr %12, align 8
  %52 = and i64 %51, %50
  store i64 %52, ptr %12, align 8
  br label %53

53:                                               ; preds = %44, %33
  %54 = load i32, ptr %11, align 4
  %55 = load i32, ptr %9, align 4
  %56 = icmp eq i32 %54, %55
  br i1 %56, label %57, label %64

57:                                               ; preds = %53
  %58 = load i32, ptr %6, align 4
  %59 = urem i32 %58, 64
  store i32 %59, ptr %14, align 4
  %60 = load i32, ptr %14, align 4
  %61 = call noundef i64 @_ZN4llvm17maskTrailingZerosImEET_j(i32 noundef %60)
  %62 = load i64, ptr %12, align 8
  %63 = and i64 %62, %61
  store i64 %63, ptr %12, align 8
  br label %64

64:                                               ; preds = %57, %53
  %65 = load i64, ptr %12, align 8
  %66 = icmp ne i64 %65, 0
  br i1 %66, label %67, label %75

67:                                               ; preds = %64
  %68 = load i32, ptr %11, align 4
  %69 = add i32 %68, 1
  %70 = mul i32 %69, 64
  %71 = load i64, ptr %12, align 8
  %72 = call noundef i32 @_ZN4llvm11countl_zeroImEEiT_(i64 noundef %71)
  %73 = sub i32 %70, %72
  %74 = sub i32 %73, 1
  store i32 %74, ptr %4, align 4
  br label %80

75:                                               ; preds = %64
  br label %76

76:                                               ; preds = %75
  %77 = load i32, ptr %10, align 4
  %78 = add i32 %77, -1
  store i32 %78, ptr %10, align 4
  br label %28, !llvm.loop !11

79:                                               ; preds = %28
  store i32 -1, ptr %4, align 4
  br label %80

80:                                               ; preds = %79, %67, %19
  %81 = load i32, ptr %4, align 4
  ret i32 %81
}

; Function Attrs: mustprogress nounwind uwtable
define linkonce_odr hidden noundef i32 @_ZNK4llvm9BitVector4sizeEv(ptr noundef nonnull align 8 dereferenceable(68) %0) #0 comdat align 2 {
  %2 = alloca ptr, align 8
  store ptr %0, ptr %2, align 8
  %3 = load ptr, ptr %2, align 8
  %4 = getelementptr inbounds nuw %"class.llvm::BitVector", ptr %3, i32 0, i32 1
  %5 = load i32, ptr %4, align 8
  ret i32 %5
}

; Function Attrs: mustprogress nounwind uwtable
define linkonce_odr hidden noundef i32 @_ZNK4llvm9BitVector9find_lastEv(ptr noundef nonnull align 8 dereferenceable(68) %0) #0 comdat align 2 {
  %2 = alloca ptr, align 8
  store ptr %0, ptr %2, align 8
  %3 = load ptr, ptr %2, align 8
  %4 = getelementptr inbounds nuw %"class.llvm::BitVector", ptr %3, i32 0, i32 1
  %5 = load i32, ptr %4, align 8
  %6 = call noundef i32 @_ZNK4llvm9BitVector12find_last_inEjj(ptr noundef nonnull align 8 dereferenceable(68) %3, i32 noundef 0, i32 noundef %5)
  ret i32 %6
}

; Function Attrs: mustprogress nounwind uwtable
define dso_local noundef i32 @_ZNK4llvm3pdb14LayoutItemBase11tailPaddingEv(ptr noundef nonnull align 8 dereferenceable(141) %0) unnamed_addr #0 align 2 {
  %2 = alloca ptr, align 8
  %3 = alloca i32, align 4
  store ptr %0, ptr %2, align 8
  %4 = load ptr, ptr %2, align 8
  %5 = getelementptr inbounds nuw %"class.llvm::pdb::LayoutItemBase", ptr %4, i32 0, i32 3
  %6 = call noundef i32 @_ZNK4llvm9BitVector9find_lastEv(ptr noundef nonnull align 8 dereferenceable(68) %5)
  store i32 %6, ptr %3, align 4
  %7 = getelementptr inbounds nuw %"class.llvm::pdb::LayoutItemBase", ptr %4, i32 0, i32 3
  %8 = call noundef i32 @_ZNK4llvm9BitVector4sizeEv(ptr noundef nonnull align 8 dereferenceable(68) %7)
  %9 = load i32, ptr %3, align 4
  %10 = add nsw i32 %9, 1
  %11 = sub i32 %8, %10
  ret i32 %11
}