; Function Attrs: mustprogress nofree norecurse nosync nounwind willreturn memory(read, inaccessiblemem: none) uwtable
define dso_local noundef i32 @_ZNK4llvm3pdb14LayoutItemBase11tailPaddingEv(ptr nocapture noundef nonnull readonly align 8 dereferenceable(141) %0) unnamed_addr #2 align 2 {
  %2 = getelementptr inbounds i8, ptr %0, i64 88
  %3 = load i32, ptr %2, align 8
  %4 = icmp eq i32 %3, 0
  br i1 %4, label %_ZNK4llvm9BitVector9find_lastEv.exit, label %5

5:                                                ; preds = %1
  %6 = getelementptr inbounds nuw i8, ptr %0, i64 24
  %7 = add i32 %3, -1
  %8 = lshr i32 %7, 6
  %9 = load ptr, ptr %6, align 8
  %10 = and i32 %7, 63
  %11 = xor i32 %10, 63
  %12 = zext nneg i32 %11 to i64
  %13 = lshr i64 -1, %12
  %narrow.i.i = add nuw nsw i32 %8, 1
  %14 = zext nneg i32 %narrow.i.i to i64
  %15 = zext nneg i32 %8 to i64
  br label %16

16:                                               ; preds = %17, %5
  %indvars.iv.i.i = phi i64 [ %18, %17 ], [ %14, %5 ]
  %.not.not.i.not.i = icmp eq i64 %indvars.iv.i.i, 0
  br i1 %.not.not.i.not.i, label %_ZNK4llvm9BitVector9find_lastEv.exit, label %17

17:                                               ; preds = %16
  %18 = add nsw i64 %indvars.iv.i.i, -1
  %19 = getelementptr inbounds i64, ptr %9, i64 %18
  %20 = load i64, ptr %19, align 8
  %.wide30.i.i = icmp eq i64 %18, %15
  %21 = select i1 %.wide30.i.i, i64 %13, i64 -1
  %.025.i.i = and i64 %20, %21
  %.not.i.i = icmp eq i64 %.025.i.i, 0
  br i1 %.not.i.i, label %16, label %22, !llvm.loop !4

22:                                               ; preds = %17
  %23 = trunc nuw i64 %indvars.iv.i.i to i32
  %24 = shl i32 %23, 6
  %25 = tail call range(i64 0, 65) i64 @llvm.ctlz.i64(i64 %.025.i.i, i1 true)
  %26 = trunc nuw nsw i64 %25 to i32
  %27 = sub i32 %26, %24
  br label %_ZNK4llvm9BitVector9find_lastEv.exit

_ZNK4llvm9BitVector9find_lastEv.exit:             ; preds = %16, %1, %22
  %.0.i.i = phi i32 [ %27, %22 ], [ 0, %1 ], [ 0, %16 ]
  %28 = add i32 %.0.i.i, %3
  ret i32 %28
}